target datalayout = "e-m:e-p270:32:32-p271:32:32-p272:64:64-i64:64-i128:128-f80:128-n8:16:32:64-S128"
target triple = "x86_64-pc-linux-gnu"

%struct.timeval = type { i64, i64 }
%struct._hist_entry = type { ptr, ptr, ptr }
%struct._hist_state = type { ptr, i32, i32, i32, i32 }
%struct.fd_set = type { [16 x i64] }

@using_libedit_emulation = internal global i32 0, align 4
@libedit_history_start = internal global i8 0, align 1
@should_auto_add_history = internal global i32 1, align 4
@__func__.call_readline = private unnamed_addr constant [14 x i8] c"call_readline\00", align 1
@.str.48 = private unnamed_addr constant [33 x i8] c"not enough memory to save locale\00", align 1
@rl_instream = external global ptr, align 8
@rl_outstream = external global ptr, align 8
@.str.49 = private unnamed_addr constant [1 x i8] zeroinitializer, align 1
@rl_catch_signals = external global i32, align 4
@completed_input_string = internal global ptr null, align 8
@__const.readline_until_enter_or_signal.timeout = private unnamed_addr constant %struct.timeval { i64 0, i64 100000 }, align 8
@PyOS_InputHook = external global ptr, align 8
@sigwinch_received = internal global i32 0, align 4
@_PyOS_ReadlineTState = external global ptr, align 8

; Function Attrs: nounwind uwtable
define internal i32 @_py_get_history_length() #0 {
  %1 = alloca ptr, align 8
  %2 = alloca i32, align 4
  call void @llvm.lifetime.start.p0(i64 8, ptr %1) #10
  %3 = call ptr @history_get_history_state()
  store ptr %3, ptr %1, align 8, !tbaa !40
  call void @llvm.lifetime.start.p0(i64 4, ptr %2) #10
  %4 = load ptr, ptr %1, align 8, !tbaa !40
  %5 = getelementptr inbounds nuw %struct._hist_state, ptr %4, i32 0, i32 2
  %6 = load i32, ptr %5, align 4, !tbaa !42
  store i32 %6, ptr %2, align 4, !tbaa !8
  %7 = load ptr, ptr %1, align 8, !tbaa !40
  call void @free(ptr noundef %7) #10
  %8 = load i32, ptr %2, align 4, !tbaa !8
  call void @llvm.lifetime.end.p0(i64 4, ptr %2) #10
  call void @llvm.lifetime.end.p0(i64 8, ptr %1) #10
  ret i32 %8
}

; Function Attrs: nounwind uwtable
define internal ptr @readline_until_enter_or_signal(ptr noundef %0, ptr noundef %1) #0 {
  %3 = alloca ptr, align 8
  %4 = alloca ptr, align 8
  %5 = alloca ptr, align 8
  %6 = alloca %struct.fd_set, align 8
  %7 = alloca i32, align 4
  %8 = alloca ptr, align 8
  %9 = alloca i32, align 4
  %10 = alloca i32, align 4
  %11 = alloca %struct.timeval, align 8
  %12 = alloca ptr, align 8
  %13 = alloca i32, align 4
  store ptr %0, ptr %3, align 8, !tbaa !3
  store ptr %1, ptr %4, align 8, !tbaa !58
  call void @llvm.lifetime.start.p0(i64 8, ptr %5) #10
  store ptr @.str.49, ptr %5, align 8, !tbaa !3
  call void @llvm.lifetime.start.p0(i64 128, ptr %6) #10
  %14 = load ptr, ptr %4, align 8, !tbaa !58
  store i32 0, ptr %14, align 4, !tbaa !8
  store i32 0, ptr @rl_catch_signals, align 4, !tbaa !8
  %15 = load ptr, ptr %3, align 8, !tbaa !3
  call void @rl_callback_handler_install(ptr noundef %15, ptr noundef @rlhandler)
  br label %16

16:                                               ; preds = %2
  call void @llvm.lifetime.start.p0(i64 4, ptr %7) #10
  call void @llvm.lifetime.start.p0(i64 8, ptr %8) #10
  store ptr %6, ptr %8, align 8, !tbaa !20
  store i32 0, ptr %7, align 4, !tbaa !8
  br label %17

17:                                               ; preds = %27, %16
  %18 = load i32, ptr %7, align 4, !tbaa !8
  %19 = zext i32 %18 to i64
  %20 = icmp ult i64 %19, 16
  br i1 %20, label %21, label %30

21:                                               ; preds = %17
  %22 = load ptr, ptr %8, align 8, !tbaa !20
  %23 = getelementptr inbounds nuw %struct.fd_set, ptr %22, i32 0, i32 0
  %24 = load i32, ptr %7, align 4, !tbaa !8
  %25 = zext i32 %24 to i64
  %26 = getelementptr [16 x i64], ptr %23, i64 0, i64 %25
  store i64 0, ptr %26, align 8, !tbaa !24
  br label %27

27:                                               ; preds = %21
  %28 = load i32, ptr %7, align 4, !tbaa !8
  %29 = add i32 %28, 1
  store i32 %29, ptr %7, align 4, !tbaa !8
  br label %17, !llvm.loop !60

30:                                               ; preds = %17
  call void @llvm.lifetime.end.p0(i64 8, ptr %8) #10
  call void @llvm.lifetime.end.p0(i64 4, ptr %7) #10
  br label %31

31:                                               ; preds = %30
  br label %32

32:                                               ; preds = %31
  %33 = load ptr, ptr %5, align 8, !tbaa !3
  store ptr %33, ptr @completed_input_string, align 8, !tbaa !3
  br label %34

34:                                               ; preds = %95, %32
  %35 = load ptr, ptr @completed_input_string, align 8, !tbaa !3
  %36 = load ptr, ptr %5, align 8, !tbaa !3
  %37 = icmp eq ptr %35, %36
  br i1 %37, label %38, label %96

38:                                               ; preds = %34
  call void @llvm.lifetime.start.p0(i64 4, ptr %9) #10
  store i32 0, ptr %9, align 4, !tbaa !8
  call void @llvm.lifetime.start.p0(i64 4, ptr %10) #10
  store i32 0, ptr %10, align 4, !tbaa !8
  br label %39

39:                                               ; preds = %77, %38
  %40 = load i32, ptr %9, align 4, !tbaa !8
  %41 = icmp ne i32 %40, 0
  %42 = xor i1 %41, true
  br i1 %42, label %43, label %78

43:                                               ; preds = %39
  call void @llvm.lifetime.start.p0(i64 16, ptr %11) #10
  call void @llvm.memcpy.p0.p0.i64(ptr align 8 %11, ptr align 8 @__const.readline_until_enter_or_signal.timeout, i64 16, i1 false)
  call void @llvm.lifetime.start.p0(i64 8, ptr %12) #10
  store ptr null, ptr %12, align 8, !tbaa !61
  %44 = load ptr, ptr @PyOS_InputHook, align 8, !tbaa !20
  %45 = icmp ne ptr %44, null
  br i1 %45, label %46, label %47

46:                                               ; preds = %43
  store ptr %11, ptr %12, align 8, !tbaa !61
  br label %47

47:                                               ; preds = %46, %43
  %48 = load volatile i32, ptr @sigwinch_received, align 4, !tbaa !8
  %49 = icmp ne i32 %48, 0
  br i1 %49, label %50, label %51

50:                                               ; preds = %47
  store volatile i32 0, ptr @sigwinch_received, align 4, !tbaa !8
  call void @rl_resize_terminal()
  br label %51

51:                                               ; preds = %50, %47
  %52 = load ptr, ptr @rl_instream, align 8, !tbaa !21
  %53 = call i32 @fileno(ptr noundef %52) #10
  %54 = srem i32 %53, 64
  %55 = zext i32 %54 to i64
  %56 = shl i64 1, %55
  %57 = getelementptr inbounds nuw %struct.fd_set, ptr %6, i32 0, i32 0
  %58 = load ptr, ptr @rl_instream, align 8, !tbaa !21
  %59 = call i32 @fileno(ptr noundef %58) #10
  %60 = sdiv i32 %59, 64
  %61 = sext i32 %60 to i64
  %62 = getelementptr [16 x i64], ptr %57, i64 0, i64 %61
  %63 = load i64, ptr %62, align 8, !tbaa !24
  %64 = or i64 %63, %56
  store i64 %64, ptr %62, align 8, !tbaa !24
  %65 = load ptr, ptr @rl_instream, align 8, !tbaa !21
  %66 = call i32 @fileno(ptr noundef %65) #10
  %67 = add i32 %66, 1
  %68 = load ptr, ptr %12, align 8, !tbaa !61
  %69 = call i32 @select(i32 noundef %67, ptr noundef %6, ptr noundef null, ptr noundef null, ptr noundef %68)
  store i32 %69, ptr %9, align 4, !tbaa !8
  %70 = call ptr @__errno_location() #13
  %71 = load i32, ptr %70, align 4, !tbaa !8
  store i32 %71, ptr %10, align 4, !tbaa !8
  %72 = load ptr, ptr @PyOS_InputHook, align 8, !tbaa !20
  %73 = icmp ne ptr %72, null
  br i1 %73, label %74, label %77

74:                                               ; preds = %51
  %75 = load ptr, ptr @PyOS_InputHook, align 8, !tbaa !20
  %76 = call i32 %75()
  br label %77

77:                                               ; preds = %74, %51
  call void @llvm.lifetime.end.p0(i64 8, ptr %12) #10
  call void @llvm.lifetime.end.p0(i64 16, ptr %11) #10
  br label %39, !llvm.loop !63

78:                                               ; preds = %39
  %79 = load i32, ptr %9, align 4, !tbaa !8
  %80 = icmp sgt i32 %79, 0
  br i1 %80, label %81, label %82

81:                                               ; preds = %78
  call void @rl_callback_read_char()
  br label %95

82:                                               ; preds = %78
  %83 = load i32, ptr %10, align 4, !tbaa !8
  %84 = icmp eq i32 %83, 4
  br i1 %84, label %85, label %94

85:                                               ; preds = %82
  call void @llvm.lifetime.start.p0(i64 4, ptr %13) #10
  %86 = load ptr, ptr @_PyOS_ReadlineTState, align 8, !tbaa !64
  call void @PyEval_RestoreThread(ptr noundef %86)
  %87 = call i32 @PyErr_CheckSignals()
  store i32 %87, ptr %13, align 4, !tbaa !8
  %88 = call ptr @PyEval_SaveThread()
  %89 = load i32, ptr %13, align 4, !tbaa !8
  %90 = icmp slt i32 %89, 0
  br i1 %90, label %91, label %93

91:                                               ; preds = %85
  call void @rl_free_line_state()
  call void @rl_callback_sigcleanup()
  call void @rl_cleanup_after_signal()
  call void @rl_callback_handler_remove()
  %92 = load ptr, ptr %4, align 8, !tbaa !58
  store i32 1, ptr %92, align 4, !tbaa !8
  store ptr null, ptr @completed_input_string, align 8, !tbaa !3
  br label %93

93:                                               ; preds = %91, %85
  call void @llvm.lifetime.end.p0(i64 4, ptr %13) #10
  br label %94

94:                                               ; preds = %93, %82
  br label %95

95:                                               ; preds = %94, %81
  call void @llvm.lifetime.end.p0(i64 4, ptr %10) #10
  call void @llvm.lifetime.end.p0(i64 4, ptr %9) #10
  br label %34, !llvm.loop !66

96:                                               ; preds = %34
  %97 = load ptr, ptr @completed_input_string, align 8, !tbaa !3
  call void @llvm.lifetime.end.p0(i64 128, ptr %6) #10
  call void @llvm.lifetime.end.p0(i64 8, ptr %5) #10
  ret ptr %97
}

; Function Attrs: nounwind uwtable
define internal ptr @call_readline(ptr noundef %0, ptr noundef %1, ptr noundef %2) #0 {
  %4 = alloca ptr, align 8
  %5 = alloca ptr, align 8
  %6 = alloca ptr, align 8
  %7 = alloca ptr, align 8
  %8 = alloca i64, align 8
  %9 = alloca ptr, align 8
  %10 = alloca i32, align 4
  %11 = alloca ptr, align 8
  %12 = alloca i32, align 4
  %13 = alloca ptr, align 8
  %14 = alloca i32, align 4
  %15 = alloca ptr, align 8
  %16 = alloca ptr, align 8
  store ptr %0, ptr %5, align 8, !tbaa !21
  store ptr %1, ptr %6, align 8, !tbaa !21
  store ptr %2, ptr %7, align 8, !tbaa !3
  call void @llvm.lifetime.start.p0(i64 8, ptr %8) #10
  call void @llvm.lifetime.start.p0(i64 8, ptr %9) #10
  call void @llvm.lifetime.start.p0(i64 4, ptr %10) #10
  call void @llvm.lifetime.start.p0(i64 8, ptr %11) #10
  %17 = call ptr @setlocale(i32 noundef 0, ptr noundef null) #10
  %18 = call noalias ptr @strdup(ptr noundef %17) #10
  store ptr %18, ptr %11, align 8, !tbaa !3
  %19 = load ptr, ptr %11, align 8, !tbaa !3
  %20 = icmp ne ptr %19, null
  br i1 %20, label %22, label %21

21:                                               ; preds = %3
  call void @_Py_FatalErrorFunc(ptr noundef @__func__.call_readline, ptr noundef @.str.48) #12
  unreachable

22:                                               ; preds = %3
  %23 = call ptr @_Py_SetLocaleFromEnv(i32 noundef 0)
  %24 = load ptr, ptr %5, align 8, !tbaa !21
  %25 = load ptr, ptr @rl_instream, align 8, !tbaa !21
  %26 = icmp ne ptr %24, %25
  br i1 %26, label %31, label %27

27:                                               ; preds = %22
  %28 = load ptr, ptr %6, align 8, !tbaa !21
  %29 = load ptr, ptr @rl_outstream, align 8, !tbaa !21
  %30 = icmp ne ptr %28, %29
  br i1 %30, label %31, label %34

31:                                               ; preds = %27, %22
  %32 = load ptr, ptr %5, align 8, !tbaa !21
  store ptr %32, ptr @rl_instream, align 8, !tbaa !21
  %33 = load ptr, ptr %6, align 8, !tbaa !21
  store ptr %33, ptr @rl_outstream, align 8, !tbaa !21
  call void @rl_prep_terminal(i32 noundef 1)
  br label %34

34:                                               ; preds = %31, %27
  %35 = load ptr, ptr %7, align 8, !tbaa !3
  %36 = call ptr @readline_until_enter_or_signal(ptr noundef %35, ptr noundef %10)
  store ptr %36, ptr %9, align 8, !tbaa !3
  %37 = load i32, ptr %10, align 4, !tbaa !8
  %38 = icmp ne i32 %37, 0
  br i1 %38, label %39, label %43

39:                                               ; preds = %34
  %40 = load ptr, ptr %11, align 8, !tbaa !3
  %41 = call ptr @setlocale(i32 noundef 0, ptr noundef %40) #10
  %42 = load ptr, ptr %11, align 8, !tbaa !3
  call void @free(ptr noundef %42) #10
  store ptr null, ptr %4, align 8
  store i32 1, ptr %12, align 4
  br label %125

43:                                               ; preds = %34
  %44 = load ptr, ptr %9, align 8, !tbaa !3
  %45 = icmp eq ptr %44, null
  br i1 %45, label %46, label %57

46:                                               ; preds = %43
  %47 = call ptr @PyMem_RawMalloc(i64 noundef 1)
  store ptr %47, ptr %9, align 8, !tbaa !3
  %48 = load ptr, ptr %9, align 8, !tbaa !3
  %49 = icmp ne ptr %48, null
  br i1 %49, label %50, label %52

50:                                               ; preds = %46
  %51 = load ptr, ptr %9, align 8, !tbaa !3
  store i8 0, ptr %51, align 1, !tbaa !23
  br label %52

52:                                               ; preds = %50, %46
  %53 = load ptr, ptr %11, align 8, !tbaa !3
  %54 = call ptr @setlocale(i32 noundef 0, ptr noundef %53) #10
  %55 = load ptr, ptr %11, align 8, !tbaa !3
  call void @free(ptr noundef %55) #10
  %56 = load ptr, ptr %9, align 8, !tbaa !3
  store ptr %56, ptr %4, align 8
  store i32 1, ptr %12, align 4
  br label %125

57:                                               ; preds = %43
  %58 = load ptr, ptr %9, align 8, !tbaa !3
  %59 = call i64 @strlen(ptr noundef %58) #11
  store i64 %59, ptr %8, align 8, !tbaa !24
  %60 = load i32, ptr @should_auto_add_history, align 4, !tbaa !8
  %61 = icmp ne i32 %60, 0
  br i1 %61, label %62, label %101

62:                                               ; preds = %57
  %63 = load i64, ptr %8, align 8, !tbaa !24
  %64 = icmp ugt i64 %63, 0
  br i1 %64, label %65, label %101

65:                                               ; preds = %62
  call void @llvm.lifetime.start.p0(i64 8, ptr %13) #10
  call void @llvm.lifetime.start.p0(i64 4, ptr %14) #10
  %66 = call i32 @_py_get_history_length()
  store i32 %66, ptr %14, align 4, !tbaa !8
  %67 = load i32, ptr %14, align 4, !tbaa !8
  %68 = icmp sgt i32 %67, 0
  br i1 %68, label %69, label %92

69:                                               ; preds = %65
  call void @llvm.lifetime.start.p0(i64 8, ptr %15) #10
  %70 = load i32, ptr @using_libedit_emulation, align 4, !tbaa !8
  %71 = icmp ne i32 %70, 0
  br i1 %71, label %72, label %79

72:                                               ; preds = %69
  %73 = load i32, ptr %14, align 4, !tbaa !8
  %74 = load i8, ptr @libedit_history_start, align 1, !tbaa !23
  %75 = sext i8 %74 to i32
  %76 = add i32 %73, %75
  %77 = sub i32 %76, 1
  %78 = call ptr @history_get(i32 noundef %77)
  store ptr %78, ptr %15, align 8, !tbaa !25
  br label %82

79:                                               ; preds = %69
  %80 = load i32, ptr %14, align 4, !tbaa !8
  %81 = call ptr @history_get(i32 noundef %80)
  store ptr %81, ptr %15, align 8, !tbaa !25
  br label %82

82:                                               ; preds = %79, %72
  %83 = load ptr, ptr %15, align 8, !tbaa !25
  %84 = icmp ne ptr %83, null
  br i1 %84, label %85, label %89

85:                                               ; preds = %82
  %86 = load ptr, ptr %15, align 8, !tbaa !25
  %87 = getelementptr inbounds nuw %struct._hist_entry, ptr %86, i32 0, i32 0
  %88 = load ptr, ptr %87, align 8, !tbaa !27
  br label %90

89:                                               ; preds = %82
  br label %90

90:                                               ; preds = %89, %85
  %91 = phi ptr [ %88, %85 ], [ @.str.49, %89 ]
  store ptr %91, ptr %13, align 8, !tbaa !3
  call void @llvm.lifetime.end.p0(i64 8, ptr %15) #10
  br label %93

92:                                               ; preds = %65
  store ptr @.str.49, ptr %13, align 8, !tbaa !3
  br label %93

93:                                               ; preds = %92, %90
  %94 = load ptr, ptr %9, align 8, !tbaa !3
  %95 = load ptr, ptr %13, align 8, !tbaa !3
  %96 = call i32 @strcmp(ptr noundef %94, ptr noundef %95) #11
  %97 = icmp ne i32 %96, 0
  br i1 %97, label %98, label %100

98:                                               ; preds = %93
  %99 = load ptr, ptr %9, align 8, !tbaa !3
  call void @add_history(ptr noundef %99)
  br label %100

100:                                              ; preds = %98, %93
  call void @llvm.lifetime.end.p0(i64 4, ptr %14) #10
  call void @llvm.lifetime.end.p0(i64 8, ptr %13) #10
  br label %101

101:                                              ; preds = %100, %62, %57
  call void @llvm.lifetime.start.p0(i64 8, ptr %16) #10
  %102 = load ptr, ptr %9, align 8, !tbaa !3
  store ptr %102, ptr %16, align 8, !tbaa !3
  %103 = load i64, ptr %8, align 8, !tbaa !24
  %104 = add i64 %103, 2
  %105 = call ptr @PyMem_RawMalloc(i64 noundef %104)
  store ptr %105, ptr %9, align 8, !tbaa !3
  %106 = load ptr, ptr %9, align 8, !tbaa !3
  %107 = icmp ne ptr %106, null
  br i1 %107, label %108, label %119

108:                                              ; preds = %101
  %109 = load ptr, ptr %9, align 8, !tbaa !3
  %110 = load ptr, ptr %16, align 8, !tbaa !3
  %111 = load i64, ptr %8, align 8, !tbaa !24
  call void @llvm.memcpy.p0.p0.i64(ptr align 1 %109, ptr align 1 %110, i64 %111, i1 false)
  %112 = load ptr, ptr %9, align 8, !tbaa !3
  %113 = load i64, ptr %8, align 8, !tbaa !24
  %114 = getelementptr i8, ptr %112, i64 %113
  store i8 10, ptr %114, align 1, !tbaa !23
  %115 = load ptr, ptr %9, align 8, !tbaa !3
  %116 = load i64, ptr %8, align 8, !tbaa !24
  %117 = add i64 %116, 1
  %118 = getelementptr i8, ptr %115, i64 %117
  store i8 0, ptr %118, align 1, !tbaa !23
  br label %119

119:                                              ; preds = %108, %101
  %120 = load ptr, ptr %16, align 8, !tbaa !3
  call void @free(ptr noundef %120) #10
  %121 = load ptr, ptr %11, align 8, !tbaa !3
  %122 = call ptr @setlocale(i32 noundef 0, ptr noundef %121) #10
  %123 = load ptr, ptr %11, align 8, !tbaa !3
  call void @free(ptr noundef %123) #10
  %124 = load ptr, ptr %9, align 8, !tbaa !3
  store ptr %124, ptr %4, align 8
  store i32 1, ptr %12, align 4
  call void @llvm.lifetime.end.p0(i64 8, ptr %16) #10
  br label %125

125:                                              ; preds = %119, %52, %39
  call void @llvm.lifetime.end.p0(i64 8, ptr %11) #10
  call void @llvm.lifetime.end.p0(i64 4, ptr %10) #10
  call void @llvm.lifetime.end.p0(i64 8, ptr %9) #10
  call void @llvm.lifetime.end.p0(i64 8, ptr %8) #10
  %126 = load ptr, ptr %4, align 8
  ret ptr %126
}