; Function Attrs: nounwind uwtable
define internal ptr @call_readline(ptr noundef %0, ptr noundef %1, ptr noundef %2) #0 {
  %4 = alloca %struct.fd_set, align 8
  %5 = alloca %struct.timeval, align 8
  %6 = tail call ptr @setlocale(i32 noundef 0, ptr noundef null) #14
  %7 = tail call noalias ptr @strdup(ptr noundef %6) #14
  %.not = icmp eq ptr %7, null
  br i1 %.not, label %8, label %9

8:                                                ; preds = %3
  tail call void @_Py_FatalErrorFunc(ptr noundef nonnull @__func__.call_readline, ptr noundef nonnull @.str.48) #15
  unreachable

9:                                                ; preds = %3
  %10 = tail call ptr @_Py_SetLocaleFromEnv(i32 noundef 0) #14
  %11 = load ptr, ptr @rl_instream, align 8, !tbaa !26
  %.not47 = icmp eq ptr %0, %11
  %12 = load ptr, ptr @rl_outstream, align 8
  %.not48 = icmp eq ptr %1, %12
  %or.cond54 = select i1 %.not47, i1 %.not48, i1 false
  br i1 %or.cond54, label %14, label %13

13:                                               ; preds = %9
  store ptr %0, ptr @rl_instream, align 8, !tbaa !26
  store ptr %1, ptr @rl_outstream, align 8, !tbaa !26
  tail call void @rl_prep_terminal(i32 noundef 1) #14
  br label %14

14:                                               ; preds = %9, %13
  call void @llvm.lifetime.start.p0(i64 128, ptr nonnull %4) #14
  store i32 0, ptr @rl_catch_signals, align 4, !tbaa !17
  tail call void @rl_callback_handler_install(ptr noundef %2, ptr noundef nonnull @rlhandler) #14
  call void @llvm.memset.p0.i64(ptr noundef nonnull align 8 dereferenceable(128) %4, i8 0, i64 128, i1 false), !tbaa !28
  store ptr @.str.49, ptr @completed_input_string, align 8, !tbaa !3
  br label %.preheader.i

.preheader.i:                                     ; preds = %53, %14
  %.pre24.i = load ptr, ptr @PyOS_InputHook, align 8, !tbaa !19
  br label %15

15:                                               ; preds = %41, %.preheader.i
  %16 = phi ptr [ %.pre24.i, %.preheader.i ], [ %42, %41 ]
  call void @llvm.lifetime.start.p0(i64 16, ptr nonnull %5) #14
  call void @llvm.memcpy.p0.p0.i64(ptr noundef nonnull align 8 dereferenceable(16) %5, ptr noundef nonnull align 8 dereferenceable(16) @__const.readline_until_enter_or_signal.timeout, i64 16, i1 false)
  %.not18.i = icmp eq ptr %16, null
  %spec.store.select.i = select i1 %.not18.i, ptr null, ptr %5
  %17 = load volatile i32, ptr @sigwinch_received, align 4, !tbaa !17
  %.not19.i = icmp eq i32 %17, 0
  br i1 %.not19.i, label %19, label %18

18:                                               ; preds = %15
  store volatile i32 0, ptr @sigwinch_received, align 4, !tbaa !17
  call void @rl_resize_terminal() #14
  br label %19

19:                                               ; preds = %18, %15
  %20 = load ptr, ptr @rl_instream, align 8, !tbaa !26
  %21 = call i32 @fileno(ptr noundef %20) #14
  %22 = srem i32 %21, 64
  %23 = zext nneg i32 %22 to i64
  %24 = shl nuw i64 1, %23
  %25 = load ptr, ptr @rl_instream, align 8, !tbaa !26
  %26 = call i32 @fileno(ptr noundef %25) #14
  %27 = sdiv i32 %26, 64
  %28 = sext i32 %27 to i64
  %29 = getelementptr [16 x i64], ptr %4, i64 0, i64 %28
  %30 = load i64, ptr %29, align 8, !tbaa !28
  %31 = or i64 %30, %24
  store i64 %31, ptr %29, align 8, !tbaa !28
  %32 = load ptr, ptr @rl_instream, align 8, !tbaa !26
  %33 = call i32 @fileno(ptr noundef %32) #14
  %34 = add i32 %33, 1
  %35 = call i32 @select(i32 noundef %34, ptr noundef nonnull %4, ptr noundef null, ptr noundef null, ptr noundef %spec.store.select.i) #14
  %36 = tail call ptr @__errno_location() #16
  %37 = load i32, ptr %36, align 4, !tbaa !17
  %38 = load ptr, ptr @PyOS_InputHook, align 8, !tbaa !19
  %.not20.i = icmp eq ptr %38, null
  br i1 %.not20.i, label %41, label %39

39:                                               ; preds = %19
  %40 = call i32 %38() #14
  %.pre.i = load ptr, ptr @PyOS_InputHook, align 8, !tbaa !19
  br label %41

41:                                               ; preds = %39, %19
  %42 = phi ptr [ %.pre.i, %39 ], [ null, %19 ]
  call void @llvm.lifetime.end.p0(i64 16, ptr nonnull %5) #14
  %.not.i = icmp eq i32 %35, 0
  br i1 %.not.i, label %15, label %43, !llvm.loop !29

43:                                               ; preds = %41
  %44 = icmp sgt i32 %35, 0
  br i1 %44, label %45, label %46

45:                                               ; preds = %43
  call void @rl_callback_read_char() #14
  br label %53

46:                                               ; preds = %43
  %47 = icmp eq i32 %37, 4
  br i1 %47, label %48, label %53

48:                                               ; preds = %46
  %49 = load ptr, ptr @_PyOS_ReadlineTState, align 8, !tbaa !31
  call void @PyEval_RestoreThread(ptr noundef %49) #14
  %50 = call i32 @PyErr_CheckSignals() #14
  %51 = call ptr @PyEval_SaveThread() #14
  %52 = icmp slt i32 %50, 0
  br i1 %52, label %55, label %53

53:                                               ; preds = %48, %46, %45
  %.pr.pr.i = load ptr, ptr @completed_input_string, align 8, !tbaa !3
  %54 = icmp eq ptr %.pr.pr.i, @.str.49
  br i1 %54, label %.preheader.i, label %56, !llvm.loop !33

55:                                               ; preds = %48
  call void @rl_free_line_state() #14
  call void @rl_callback_sigcleanup() #14
  call void @rl_cleanup_after_signal() #14
  call void @rl_callback_handler_remove() #14
  store ptr null, ptr @completed_input_string, align 8, !tbaa !3
  call void @llvm.lifetime.end.p0(i64 128, ptr nonnull %4) #14
  br label %88

56:                                               ; preds = %53
  call void @llvm.lifetime.end.p0(i64 128, ptr nonnull %4) #14
  %57 = icmp eq ptr %.pr.pr.i, null
  br i1 %57, label %58, label %61

58:                                               ; preds = %56
  %59 = call ptr @PyMem_RawMalloc(i64 noundef 1) #14
  %.not53 = icmp eq ptr %59, null
  br i1 %.not53, label %88, label %60

60:                                               ; preds = %58
  store i8 0, ptr %59, align 1, !tbaa !25
  br label %88

61:                                               ; preds = %56
  %62 = call i64 @strlen(ptr noundef nonnull dereferenceable(1) %.pr.pr.i) #13
  %63 = load i32, ptr @should_auto_add_history, align 4, !tbaa !17
  %64 = icmp ne i32 %63, 0
  %65 = icmp ne i64 %62, 0
  %or.cond = select i1 %64, i1 %65, i1 false
  br i1 %or.cond, label %66, label %81

66:                                               ; preds = %61
  %67 = call ptr @history_get_history_state() #14
  %68 = getelementptr inbounds nuw i8, ptr %67, i64 12
  %69 = load i32, ptr %68, align 4, !tbaa !34
  call void @free(ptr noundef %67) #14
  %70 = icmp sgt i32 %69, 0
  br i1 %70, label %71, label %78

71:                                               ; preds = %66
  %.b = load i1, ptr @using_libedit_emulation, align 4
  %.b46 = load i1, ptr @libedit_history_start, align 1
  %72 = zext i1 %.b46 to i32
  %73 = add nsw i32 %69, -1
  %74 = add nuw nsw i32 %73, %72
  %.sink = select i1 %.b, i32 %74, i32 %69
  %75 = call ptr @history_get(i32 noundef %.sink) #14
  %.not50 = icmp eq ptr %75, null
  br i1 %.not50, label %78, label %76

76:                                               ; preds = %71
  %77 = load ptr, ptr %75, align 8, !tbaa !20
  br label %78

78:                                               ; preds = %66, %76, %71
  %.040 = phi ptr [ %77, %76 ], [ @.str.49, %71 ], [ @.str.49, %66 ]
  %79 = call i32 @strcmp(ptr noundef nonnull dereferenceable(1) %.pr.pr.i, ptr noundef nonnull dereferenceable(1) %.040) #13
  %.not51 = icmp eq i32 %79, 0
  br i1 %.not51, label %81, label %80

80:                                               ; preds = %78
  call void @add_history(ptr noundef nonnull %.pr.pr.i) #14
  br label %81

81:                                               ; preds = %78, %80, %61
  %82 = add i64 %62, 2
  %83 = call ptr @PyMem_RawMalloc(i64 noundef %82) #14
  %.not52 = icmp eq ptr %83, null
  br i1 %.not52, label %87, label %84

84:                                               ; preds = %81
  call void @llvm.memcpy.p0.p0.i64(ptr nonnull align 1 %83, ptr nonnull align 1 %.pr.pr.i, i64 %62, i1 false)
  %85 = getelementptr i8, ptr %83, i64 %62
  store i8 10, ptr %85, align 1, !tbaa !25
  %86 = getelementptr i8, ptr %85, i64 1
  store i8 0, ptr %86, align 1, !tbaa !25
  br label %87

87:                                               ; preds = %84, %81
  call void @free(ptr noundef nonnull %.pr.pr.i) #14
  br label %88

88:                                               ; preds = %58, %60, %87, %55
  %.0 = phi ptr [ null, %55 ], [ %83, %87 ], [ %59, %60 ], [ %59, %58 ]
  %89 = call ptr @setlocale(i32 noundef 0, ptr noundef nonnull %7) #14
  call void @free(ptr noundef %7) #14
  ret ptr %.0
}